; Function Attrs: mustprogress nounwind uwtable
define dso_local void @_ZN2EA4StdC9Stopwatch4StopEv(ptr noundef nonnull align 8 captures(none) dereferenceable(24) %this) local_unnamed_addr #0 align 2 {
entry:
  %ts.i = alloca %struct.timespec, align 8
  %0 = load i64, ptr %this, align 8
  %tobool.not = icmp eq i64 %0, 0
  br i1 %tobool.not, label %if.end10, label %if.then

if.then:                                          ; preds = %entry
  %mnUnits = getelementptr inbounds nuw i8, ptr %this, i64 16
  %1 = load i32, ptr %mnUnits, align 8
  %cmp = icmp eq i32 %1, 1
  br i1 %cmp, label %cond.true, label %cond.false

cond.true:                                        ; preds = %if.then
  %2 = tail call noundef i64 @llvm.x86.rdtsc()
  br label %cond.end

cond.false:                                       ; preds = %if.then
  call void @llvm.lifetime.start.p0(i64 16, ptr nonnull %ts.i)
  %call.i = call i32 @clock_gettime(i32 noundef 1, ptr noundef nonnull %ts.i) #7
  %cmp.i = icmp eq i32 %call.i, 22
  br i1 %cmp.i, label %if.then.i, label %_ZN2EA4StdC9Stopwatch17GetStopwatchCycleEv.exit

if.then.i:                                        ; preds = %cond.false
  %call1.i = call i32 @clock_gettime(i32 noundef 0, ptr noundef nonnull %ts.i) #7
  br label %_ZN2EA4StdC9Stopwatch17GetStopwatchCycleEv.exit

_ZN2EA4StdC9Stopwatch17GetStopwatchCycleEv.exit:  ; preds = %cond.false, %if.then.i
  %tv_nsec.i = getelementptr inbounds nuw i8, ptr %ts.i, i64 8
  %3 = load i64, ptr %tv_nsec.i, align 8
  %4 = load i64, ptr %ts.i, align 8
  %mul.i = mul i64 %4, 1000000000
  %add.i = add i64 %mul.i, %3
  call void @llvm.lifetime.end.p0(i64 16, ptr nonnull %ts.i)
  br label %cond.end

cond.end:                                         ; preds = %_ZN2EA4StdC9Stopwatch17GetStopwatchCycleEv.exit, %cond.true
  %cond = phi i64 [ %2, %cond.true ], [ %add.i, %_ZN2EA4StdC9Stopwatch17GetStopwatchCycleEv.exit ]
  %5 = load i64, ptr %this, align 8
  %sub = sub i64 %cond, %5
  %6 = load i64, ptr @_ZN12_GLOBAL__N_131mnStopwatchCycleReadingOverheadE, align 8
  %cmp4 = icmp ugt i64 %sub, %6
  br i1 %cmp4, label %if.then5, label %if.else

if.then5:                                         ; preds = %cond.end
  %sub6 = sub nuw i64 %sub, %6
  %mnTotalElapsedTime = getelementptr inbounds nuw i8, ptr %this, i64 8
  %7 = load i64, ptr %mnTotalElapsedTime, align 8
  %add = add i64 %sub6, %7
  store i64 %add, ptr %mnTotalElapsedTime, align 8
  br label %if.end

if.else:                                          ; preds = %cond.end
  %mnTotalElapsedTime7 = getelementptr inbounds nuw i8, ptr %this, i64 8
  %8 = load i64, ptr %mnTotalElapsedTime7, align 8
  %add8 = add i64 %8, 1
  store i64 %add8, ptr %mnTotalElapsedTime7, align 8
  br label %if.end

if.end:                                           ; preds = %if.else, %if.then5
  store i64 0, ptr %this, align 8
  br label %if.end10

if.end10:                                         ; preds = %if.end, %entry
  ret void
}